; Function Attrs: null_pointer_is_valid sspstrong uwtable
define internal i32 @dissect_gsup(ptr noundef %0, ptr noundef %1, ptr noundef %2, ptr readnone captures(none) %3) #0 {
  %5 = tail call i32 @tvb_reported_length(ptr noundef %0)
  %6 = tail call zeroext i8 @tvb_get_uint8(ptr noundef %0, i32 noundef 0)
  %7 = getelementptr inbounds nuw i8, ptr %1, i64 8
  %8 = load ptr, ptr %7, align 8
  tail call void @col_set_str(ptr noundef %8, i32 noundef 35, ptr noundef nonnull @.str.107)
  %9 = load ptr, ptr %7, align 8
  tail call void @col_clear(ptr noundef %9, i32 noundef 25)
  %10 = zext i8 %6 to i32
  %11 = tail call ptr @val_to_str(i32 noundef %10, ptr noundef nonnull @gsup_msg_types, ptr noundef nonnull @.str.229)
  %12 = load ptr, ptr %7, align 8
  tail call void (ptr, i32, ptr, ...) @col_append_fstr(ptr noundef %12, i32 noundef 25, ptr noundef nonnull @.str.230, ptr noundef %11)
  %13 = load i32, ptr @proto_gsup, align 4
  %14 = tail call ptr (ptr, i32, ptr, i32, i32, ptr, ...) @proto_tree_add_protocol_format(ptr noundef %2, i32 noundef %13, ptr noundef %0, i32 noundef 0, i32 noundef %5, ptr noundef nonnull @.str.231, ptr noundef %11)
  %15 = load i32, ptr @ett_gsup, align 4
  %16 = tail call ptr @proto_item_add_subtree(ptr noundef %14, i32 noundef %15)
  %17 = load i32, ptr @hf_gsup_msg_type, align 4
  %18 = tail call ptr @proto_tree_add_item(ptr noundef %16, i32 noundef %17, ptr noundef %0, i32 noundef 0, i32 noundef 1, i32 noundef 0)
  %19 = tail call i32 @tvb_reported_length_remaining(ptr noundef %0, i32 noundef 1)
  tail call fastcc void @dissect_gsup_tlvs(ptr noundef %0, i32 noundef 1, i32 noundef %19, ptr noundef %1, ptr noundef %16, ptr noundef %14, i8 noundef zeroext %6)
  %20 = tail call i32 @tvb_captured_length(ptr noundef %0)
  ret i32 %20
}